target datalayout = "e-m:e-p270:32:32-p271:32:32-p272:64:64-i64:64-i128:128-f80:128-n8:16:32:64-S128"
target triple = "x86_64-pc-linux-gnu"

%struct.lua_TValue = type { %union.Value, [1 x i32], i32 }
%union.Value = type { ptr }

; Function Attrs: mustprogress nounwind uwtable
define internal noundef i32 @_ZL13luauF_countrzP9lua_StateP10lua_TValueS2_iS2_i(ptr noundef %0, ptr noundef %1, ptr noundef %2, i32 noundef %3, ptr noundef %4, i32 noundef %5) #0 {
  %7 = alloca i32, align 4
  %8 = alloca ptr, align 8
  %9 = alloca ptr, align 8
  %10 = alloca ptr, align 8
  %11 = alloca i32, align 4
  %12 = alloca ptr, align 8
  %13 = alloca i32, align 4
  %14 = alloca double, align 8
  %15 = alloca i32, align 4
  %16 = alloca i32, align 4
  %17 = alloca ptr, align 8
  store ptr %0, ptr %8, align 8, !tbaa !4
  store ptr %1, ptr %9, align 8, !tbaa !9
  store ptr %2, ptr %10, align 8, !tbaa !9
  store i32 %3, ptr %11, align 4, !tbaa !11
  store ptr %4, ptr %12, align 8, !tbaa !9
  store i32 %5, ptr %13, align 4, !tbaa !11
  %18 = load i32, ptr %13, align 4, !tbaa !11
  %19 = icmp sge i32 %18, 1
  br i1 %19, label %20, label %50

20:                                               ; preds = %6
  %21 = load i32, ptr %11, align 4, !tbaa !11
  %22 = icmp sle i32 %21, 1
  br i1 %22, label %23, label %50

23:                                               ; preds = %20
  %24 = load ptr, ptr %10, align 8, !tbaa !9
  %25 = getelementptr inbounds nuw %struct.lua_TValue, ptr %24, i32 0, i32 2
  %26 = load i32, ptr %25, align 4, !tbaa !13
  %27 = icmp eq i32 %26, 3
  br i1 %27, label %28, label %50

28:                                               ; preds = %23
  call void @llvm.lifetime.start.p0(i64 8, ptr %14) #17
  %29 = load ptr, ptr %10, align 8, !tbaa !9
  %30 = getelementptr inbounds nuw %struct.lua_TValue, ptr %29, i32 0, i32 0
  %31 = load double, ptr %30, align 8, !tbaa !15
  store double %31, ptr %14, align 8, !tbaa !16
  call void @llvm.lifetime.start.p0(i64 4, ptr %15) #17
  %32 = load double, ptr %14, align 8, !tbaa !16
  %33 = fptosi double %32 to i64
  %34 = trunc i64 %33 to i32
  store i32 %34, ptr %15, align 4, !tbaa !11
  call void @llvm.lifetime.start.p0(i64 4, ptr %16) #17
  %35 = load i32, ptr %15, align 4, !tbaa !11
  %36 = icmp eq i32 %35, 0
  br i1 %36, label %37, label %38

37:                                               ; preds = %28
  br label %41

38:                                               ; preds = %28
  %39 = load i32, ptr %15, align 4, !tbaa !11
  %40 = call i32 @llvm.cttz.i32(i32 %39, i1 true)
  br label %41

41:                                               ; preds = %38, %37
  %42 = phi i32 [ 32, %37 ], [ %40, %38 ]
  store i32 %42, ptr %16, align 4, !tbaa !11
  call void @llvm.lifetime.start.p0(i64 8, ptr %17) #17
  %43 = load ptr, ptr %9, align 8, !tbaa !9
  store ptr %43, ptr %17, align 8, !tbaa !9
  %44 = load i32, ptr %16, align 4, !tbaa !11
  %45 = sitofp i32 %44 to double
  %46 = load ptr, ptr %17, align 8, !tbaa !9
  %47 = getelementptr inbounds nuw %struct.lua_TValue, ptr %46, i32 0, i32 0
  store double %45, ptr %47, align 8, !tbaa !15
  %48 = load ptr, ptr %17, align 8, !tbaa !9
  %49 = getelementptr inbounds nuw %struct.lua_TValue, ptr %48, i32 0, i32 2
  store i32 3, ptr %49, align 4, !tbaa !13
  call void @llvm.lifetime.end.p0(i64 8, ptr %17) #17
  store i32 1, ptr %7, align 4
  call void @llvm.lifetime.end.p0(i64 4, ptr %16) #17
  call void @llvm.lifetime.end.p0(i64 4, ptr %15) #17
  call void @llvm.lifetime.end.p0(i64 8, ptr %14) #17
  br label %51

50:                                               ; preds = %23, %20, %6
  store i32 -1, ptr %7, align 4
  br label %51

51:                                               ; preds = %50, %41
  %52 = load i32, ptr %7, align 4
  ret i32 %52
}