; Function Attrs: mustprogress nofree norecurse nosync nounwind willreturn memory(argmem: readwrite) uwtable
define internal noundef range(i32 -1, 2) i32 @_ZL13luauF_countrzP9lua_StateP10lua_TValueS2_iS2_i(ptr readnone captures(none) %0, ptr noundef writeonly captures(none) %1, ptr noundef readonly captures(none) %2, i32 noundef %3, ptr readnone captures(none) %4, i32 noundef %5) #1 {
  %7 = icmp sgt i32 %5, 0
  %8 = icmp slt i32 %3, 2
  %or.cond = and i1 %8, %7
  br i1 %or.cond, label %9, label %20

9:                                                ; preds = %6
  %10 = getelementptr inbounds nuw i8, ptr %2, i64 12
  %11 = load i32, ptr %10, align 4, !tbaa !4
  %12 = icmp eq i32 %11, 3
  br i1 %12, label %13, label %20

13:                                               ; preds = %9
  %14 = load double, ptr %2, align 8, !tbaa !9
  %15 = fptosi double %14 to i64
  %16 = trunc i64 %15 to i32
  %17 = tail call range(i32 0, 33) i32 @llvm.cttz.i32(i32 %16, i1 false)
  %18 = uitofp nneg i32 %17 to double
  store double %18, ptr %1, align 8, !tbaa !9
  %19 = getelementptr inbounds nuw i8, ptr %1, i64 12
  store i32 3, ptr %19, align 4, !tbaa !4
  br label %20

20:                                               ; preds = %6, %9, %13
  %.0 = phi i32 [ 1, %13 ], [ -1, %9 ], [ -1, %6 ]
  ret i32 %.0
}